; Function Attrs: mustprogress nounwind uwtable
define hidden void @_ZN7Compile18add_expensive_nodeEP4Node(ptr noundef nonnull align 8 dereferenceable(2316) %0, ptr noundef %1) local_unnamed_addr #0 align 2 {
  %3 = load i8, ptr @OptimizeExpensiveOps, align 1
  %4 = trunc i8 %3 to i1
  br i1 %4, label %5, label %27

5:                                                ; preds = %2
  %6 = getelementptr inbounds i8, ptr %0, i64 488
  %7 = load i32, ptr %6, align 8
  %8 = getelementptr inbounds i8, ptr %0, i64 492
  %9 = load i32, ptr %8, align 4
  %10 = icmp eq i32 %7, %9
  br i1 %10, label %11, label %_ZN26GrowableArrayWithAllocatorIP4Node13GrowableArrayIS1_EE6appendERKS1_.exit

11:                                               ; preds = %5
  %12 = add nsw i32 %7, 1
  %13 = icmp sgt i32 %7, -1
  %14 = xor i32 %7, -2147483648
  %15 = and i32 %14, %12
  %16 = icmp eq i32 %15, 0
  %17 = and i1 %13, %16
  %18 = tail call range(i32 0, 33) i32 @llvm.ctlz.i32(i32 %12, i1 true)
  %19 = sub nuw nsw i32 32, %18
  %20 = shl nuw i32 1, %19
  %.0.i.i.i.i = select i1 %17, i32 %12, i32 %20
  tail call void @_ZN26GrowableArrayWithAllocatorIP4Node13GrowableArrayIS1_EE9expand_toEi(ptr noundef nonnull align 8 dereferenceable(16) %6, i32 noundef %.0.i.i.i.i)
  %.pre.i = load i32, ptr %6, align 8
  br label %_ZN26GrowableArrayWithAllocatorIP4Node13GrowableArrayIS1_EE6appendERKS1_.exit

_ZN26GrowableArrayWithAllocatorIP4Node13GrowableArrayIS1_EE6appendERKS1_.exit: ; preds = %5, %11
  %21 = phi i32 [ %.pre.i, %11 ], [ %7, %5 ]
  %22 = add nsw i32 %21, 1
  store i32 %22, ptr %6, align 8
  %23 = getelementptr inbounds i8, ptr %0, i64 496
  %24 = load ptr, ptr %23, align 8
  %25 = sext i32 %21 to i64
  %26 = getelementptr inbounds ptr, ptr %24, i64 %25
  store ptr %1, ptr %26, align 8
  br label %48

27:                                               ; preds = %2
  %28 = getelementptr inbounds i8, ptr %1, i64 8
  %29 = load ptr, ptr %28, align 8
  %30 = load ptr, ptr %29, align 8
  %.not.i = icmp eq ptr %30, null
  br i1 %.not.i, label %_ZN4Node7set_reqEjPS_.exit, label %31

31:                                               ; preds = %27
  %32 = getelementptr inbounds i8, ptr %30, i64 16
  %33 = load ptr, ptr %32, align 8
  %34 = icmp eq ptr %33, null
  br i1 %34, label %_ZN4Node7set_reqEjPS_.exit, label %35

35:                                               ; preds = %31
  %36 = getelementptr inbounds i8, ptr %30, i64 32
  %37 = load i32, ptr %36, align 8
  %38 = zext i32 %37 to i64
  %39 = getelementptr inbounds ptr, ptr %33, i64 %38
  br label %40

40:                                               ; preds = %40, %35
  %.0.i.i = phi ptr [ %39, %35 ], [ %41, %40 ]
  %41 = getelementptr inbounds i8, ptr %.0.i.i, i64 -8
  %42 = load ptr, ptr %41, align 8
  %.not.i.i = icmp eq ptr %42, %1
  br i1 %.not.i.i, label %43, label %40, !llvm.loop !9

43:                                               ; preds = %40
  %44 = add i32 %37, -1
  store i32 %44, ptr %36, align 8
  %45 = zext i32 %44 to i64
  %46 = getelementptr inbounds ptr, ptr %33, i64 %45
  %47 = load ptr, ptr %46, align 8
  store ptr %47, ptr %41, align 8
  br label %_ZN4Node7set_reqEjPS_.exit

_ZN4Node7set_reqEjPS_.exit:                       ; preds = %27, %31, %43
  store ptr null, ptr %29, align 8
  br label %48

48:                                               ; preds = %_ZN4Node7set_reqEjPS_.exit, %_ZN26GrowableArrayWithAllocatorIP4Node13GrowableArrayIS1_EE6appendERKS1_.exit
  ret void
}